; ModuleID = '57/3012.c'
source_filename = "57/3012.c"
target datalayout = "e-m:e-p270:32:32-p271:32:32-p272:64:64-i64:64-f80:128-n8:16:32:64-S128"
target triple = "x86_64-pc-linux-gnu"

@.str = private unnamed_addr constant [3 x i8] c"%d\00", align 1
@.str.1 = private unnamed_addr constant [3 x i8] c"%s\00", align 1
@.str.2 = private unnamed_addr constant [4 x i8] c"%s\0A\00", align 1

; Function Attrs: noinline nounwind uwtable
define dso_local void @main() #0 {
  %1 = alloca i32, align 4
  %2 = alloca i32, align 4
  %3 = alloca i32, align 4
  %4 = alloca [20 x i8], align 16
  %5 = alloca i8*, align 8
  %6 = call i32 (i8*, ...) @__isoc99_scanf(i8* getelementptr inbounds ([3 x i8], [3 x i8]* @.str, i64 0, i64 0), i32* %1)
  br label %7

7:                                                ; preds = %76, %0
  %8 = load i32, i32* %1, align 4
  %9 = icmp sgt i32 %8, 0
  br i1 %9, label %10, label %79

10:                                               ; preds = %7
  %11 = getelementptr inbounds [20 x i8], [20 x i8]* %4, i64 0, i64 0
  %12 = call i32 (i8*, ...) @__isoc99_scanf(i8* getelementptr inbounds ([3 x i8], [3 x i8]* @.str.1, i64 0, i64 0), i8* %11)
  %13 = getelementptr inbounds [20 x i8], [20 x i8]* %4, i64 0, i64 0
  %14 = call i64 @strlen(i8* %13) #3
  %15 = trunc i64 %14 to i32
  store i32 %15, i32* %3, align 4
  %16 = getelementptr inbounds [20 x i8], [20 x i8]* %4, i64 0, i64 0
  %17 = load i32, i32* %3, align 4
  %18 = sext i32 %17 to i64
  %19 = getelementptr inbounds i8, i8* %16, i64 %18
  %20 = getelementptr inbounds i8, i8* %19, i64 -1
  store i8* %20, i8** %5, align 8
  %21 = load i8*, i8** %5, align 8
  %22 = getelementptr inbounds i8, i8* %21, i64 -1
  %23 = load i8, i8* %22, align 1
  %24 = sext i8 %23 to i32
  %25 = icmp eq i32 %24, 101
  br i1 %25, label %26, label %36

26:                                               ; preds = %10
  %27 = load i8*, i8** %5, align 8
  %28 = load i8, i8* %27, align 1
  %29 = sext i8 %28 to i32
  %30 = icmp eq i32 %29, 114
  br i1 %30, label %31, label %36

31:                                               ; preds = %26
  %32 = load i8*, i8** %5, align 8
  %33 = getelementptr inbounds i8, i8* %32, i64 -1
  store i8 0, i8* %33, align 1
  %34 = getelementptr inbounds [20 x i8], [20 x i8]* %4, i64 0, i64 0
  %35 = call i32 (i8*, ...) @printf(i8* getelementptr inbounds ([4 x i8], [4 x i8]* @.str.2, i64 0, i64 0), i8* %34)
  br label %76

36:                                               ; preds = %26, %10
  %37 = load i8*, i8** %5, align 8
  %38 = getelementptr inbounds i8, i8* %37, i64 -1
  %39 = load i8, i8* %38, align 1
  %40 = sext i8 %39 to i32
  %41 = icmp eq i32 %40, 108
  br i1 %41, label %42, label %52

42:                                               ; preds = %36
  %43 = load i8*, i8** %5, align 8
  %44 = load i8, i8* %43, align 1
  %45 = sext i8 %44 to i32
  %46 = icmp eq i32 %45, 121
  br i1 %46, label %47, label %52

47:                                               ; preds = %42
  %48 = load i8*, i8** %5, align 8
  %49 = getelementptr inbounds i8, i8* %48, i64 -1
  store i8 0, i8* %49, align 1
  %50 = getelementptr inbounds [20 x i8], [20 x i8]* %4, i64 0, i64 0
  %51 = call i32 (i8*, ...) @printf(i8* getelementptr inbounds ([4 x i8], [4 x i8]* @.str.2, i64 0, i64 0), i8* %50)
  br label %75

52:                                               ; preds = %42, %36
  %53 = load i8*, i8** %5, align 8
  %54 = getelementptr inbounds i8, i8* %53, i64 -2
  %55 = load i8, i8* %54, align 1
  %56 = sext i8 %55 to i32
  %57 = icmp eq i32 %56, 105
  br i1 %57, label %58, label %74

58:                                               ; preds = %52
  %59 = load i8*, i8** %5, align 8
  %60 = getelementptr inbounds i8, i8* %59, i64 -1
  %61 = load i8, i8* %60, align 1
  %62 = sext i8 %61 to i32
  %63 = icmp eq i32 %62, 110
  br i1 %63, label %64, label %74

64:                                               ; preds = %58
  %65 = load i8*, i8** %5, align 8
  %66 = load i8, i8* %65, align 1
  %67 = sext i8 %66 to i32
  %68 = icmp eq i32 %67, 103
  br i1 %68, label %69, label %74

69:                                               ; preds = %64
  %70 = load i8*, i8** %5, align 8
  %71 = getelementptr inbounds i8, i8* %70, i64 -2
  store i8 0, i8* %71, align 1
  %72 = getelementptr inbounds [20 x i8], [20 x i8]* %4, i64 0, i64 0
  %73 = call i32 (i8*, ...) @printf(i8* getelementptr inbounds ([4 x i8], [4 x i8]* @.str.2, i64 0, i64 0), i8* %72)
  br label %74

74:                                               ; preds = %69, %64, %58, %52
  br label %75

75:                                               ; preds = %74, %47
  br label %76

76:                                               ; preds = %75, %31
  %77 = load i32, i32* %1, align 4
  %78 = add nsw i32 %77, -1
  store i32 %78, i32* %1, align 4
  br label %7

79:                                               ; preds = %7
  ret void
}

declare dso_local i32 @__isoc99_scanf(i8*, ...) #1

; Function Attrs: nounwind readonly
declare dso_local i64 @strlen(i8*) #2

declare dso_local i32 @printf(i8*, ...) #1


!llvm.module.flags = !{!0}
!llvm.ident = !{!1}

!0 = !{i32 1, !"wchar_size", i32 4}
!1 = !{!"clang version 10.0.0-4ubuntu1 "}
